; Function Attrs: mustprogress nounwind uwtable
define hidden void @_ZN22ComputeLinearScanOrder18compute_dominatorsEv(ptr nocapture noundef nonnull readonly align 8 dereferenceable(200) %0) local_unnamed_addr #0 align 2 {
  %2 = getelementptr inbounds i8, ptr %0, i64 12
  %3 = load i8, ptr %2, align 4
  %4 = trunc i8 %3 to i1
  br i1 %4, label %.preheader, label %.loopexit

.preheader:                                       ; preds = %1, %.preheader
  %5 = tail call noundef zeroext i1 @_ZN22ComputeLinearScanOrder23compute_dominators_iterEv(ptr noundef nonnull align 8 dereferenceable(200) %0)
  br i1 %5, label %.preheader, label %.loopexit, !llvm.loop !18

.loopexit:                                        ; preds = %.preheader, %1
  %6 = getelementptr inbounds i8, ptr %0, i64 16
  %7 = load ptr, ptr %6, align 8
  %8 = load i32, ptr %7, align 4
  %9 = icmp sgt i32 %8, 0
  br i1 %9, label %.lr.ph.preheader, label %._crit_edge

.lr.ph.preheader:                                 ; preds = %.loopexit
  %wide.trip.count = zext nneg i32 %8 to i64
  br label %.lr.ph

.lr.ph:                                           ; preds = %.lr.ph.preheader, %42
  %indvars.iv = phi i64 [ 0, %.lr.ph.preheader ], [ %indvars.iv.next, %42 ]
  %10 = load ptr, ptr %6, align 8
  %11 = getelementptr inbounds i8, ptr %10, i64 8
  %12 = load ptr, ptr %11, align 8
  %13 = getelementptr inbounds ptr, ptr %12, i64 %indvars.iv
  %14 = load ptr, ptr %13, align 8
  %15 = getelementptr inbounds i8, ptr %14, i64 208
  %16 = load ptr, ptr %15, align 8
  %.not = icmp eq ptr %16, null
  br i1 %.not, label %42, label %17

17:                                               ; preds = %.lr.ph
  %18 = getelementptr inbounds i8, ptr %16, i64 184
  %19 = load i32, ptr %18, align 8
  %20 = getelementptr inbounds i8, ptr %16, i64 188
  %21 = load i32, ptr %20, align 4
  %22 = icmp eq i32 %19, %21
  br i1 %22, label %23, label %_ZN26GrowableArrayWithAllocatorIP10BlockBegin13GrowableArrayIS1_EE6appendERKS1_.exit

23:                                               ; preds = %17
  %24 = add nsw i32 %19, 1
  %25 = icmp sgt i32 %19, -1
  %26 = xor i32 %19, -2147483648
  %27 = and i32 %26, %24
  %28 = icmp eq i32 %27, 0
  %29 = and i1 %25, %28
  %30 = tail call range(i32 0, 33) i32 @llvm.ctlz.i32(i32 %24, i1 true)
  %31 = sub nuw nsw i32 32, %30
  %32 = shl nuw i32 1, %31
  %.0.i.i.i.i = select i1 %29, i32 %24, i32 %32
  tail call void @_ZN26GrowableArrayWithAllocatorIP10BlockBegin13GrowableArrayIS1_EE9expand_toEi(ptr noundef nonnull align 8 dereferenceable(16) %18, i32 noundef %.0.i.i.i.i)
  %.pre.i = load i32, ptr %18, align 8
  br label %_ZN26GrowableArrayWithAllocatorIP10BlockBegin13GrowableArrayIS1_EE6appendERKS1_.exit

_ZN26GrowableArrayWithAllocatorIP10BlockBegin13GrowableArrayIS1_EE6appendERKS1_.exit: ; preds = %17, %23
  %33 = phi i32 [ %.pre.i, %23 ], [ %19, %17 ]
  %34 = add nsw i32 %33, 1
  store i32 %34, ptr %18, align 8
  %35 = getelementptr inbounds i8, ptr %16, i64 192
  %36 = load ptr, ptr %35, align 8
  %37 = sext i32 %33 to i64
  %38 = getelementptr inbounds ptr, ptr %36, i64 %37
  store ptr %14, ptr %38, align 8
  %39 = getelementptr inbounds i8, ptr %16, i64 120
  %40 = load i32, ptr %39, align 8
  %41 = add nsw i32 %40, 1
  br label %42

42:                                               ; preds = %.lr.ph, %_ZN26GrowableArrayWithAllocatorIP10BlockBegin13GrowableArrayIS1_EE6appendERKS1_.exit
  %.sink = phi i32 [ %41, %_ZN26GrowableArrayWithAllocatorIP10BlockBegin13GrowableArrayIS1_EE6appendERKS1_.exit ], [ 0, %.lr.ph ]
  %43 = getelementptr inbounds i8, ptr %14, i64 120
  store i32 %.sink, ptr %43, align 8
  %indvars.iv.next = add nuw nsw i64 %indvars.iv, 1
  %exitcond.not = icmp eq i64 %indvars.iv.next, %wide.trip.count
  br i1 %exitcond.not, label %._crit_edge, label %.lr.ph, !llvm.loop !19

._crit_edge:                                      ; preds = %42, %.loopexit
  ret void
}